; Function Attrs: nounwind uwtable
define ptr @l_Lean_Elab_Tactic_RCases_RCasesPatt_instToMessageData_parenAbove(ptr noundef %0, ptr noundef %1, ptr noundef %2) local_unnamed_addr #1 {
  %4 = ptrtoint ptr %0 to i64
  %5 = ptrtoint ptr %1 to i64
  %6 = and i64 %4, 1
  %7 = and i64 %6, %5
  %or.cond.not = icmp eq i64 %7, 0
  br i1 %or.cond.not, label %lean_nat_lt.exit, label %8, !prof !15

8:                                                ; preds = %3
  %9 = icmp ult ptr %0, %1
  br i1 %9, label %11, label %15

lean_nat_lt.exit:                                 ; preds = %3
  %10 = tail call zeroext i1 @lean_nat_big_lt(ptr noundef %0, ptr noundef %1) #5
  br i1 %10, label %11, label %15

11:                                               ; preds = %8, %lean_nat_lt.exit
  %12 = load ptr, ptr @l_Lean_Elab_Tactic_RCases_RCasesPatt_instToMessageData_parenAbove___closed__1, align 8, !tbaa !4
  %13 = load ptr, ptr @l_Lean_Elab_Tactic_RCases_RCasesPatt_instToMessageData_parenAbove___closed__2, align 8, !tbaa !4
  %14 = tail call ptr @l_Lean_MessageData_bracket(ptr noundef %12, ptr noundef %2, ptr noundef %13) #5
  br label %15

15:                                               ; preds = %8, %lean_nat_lt.exit, %11
  %.0 = phi ptr [ %14, %11 ], [ %2, %lean_nat_lt.exit ], [ %2, %8 ]
  ret ptr %.0
}